target datalayout = "e-m:e-p270:32:32-p271:32:32-p272:64:64-i64:64-i128:128-f80:128-n8:16:32:64-S128"
target triple = "x86_64-pc-linux-gnu"

%struct.PHP_MD2_CTX = type { [48 x i8], [16 x i8], [16 x i8], i8 }

; Function Attrs: nounwind uwtable
define internal void @MD2_Transform(ptr noundef %0, ptr noundef %1) #1 {
  %3 = alloca ptr, align 8
  %4 = alloca ptr, align 8
  %5 = alloca i8, align 1
  %6 = alloca i8, align 1
  %7 = alloca i8, align 1
  store ptr %0, ptr %3, align 8, !tbaa !4
  store ptr %1, ptr %4, align 8, !tbaa !12
  call void @llvm.lifetime.start.p0(i64 1, ptr %5) #6
  call void @llvm.lifetime.start.p0(i64 1, ptr %6) #6
  call void @llvm.lifetime.start.p0(i64 1, ptr %7) #6
  store i8 0, ptr %7, align 1, !tbaa !31
  store i8 0, ptr %5, align 1, !tbaa !31
  br label %8

8:                                                ; preds = %50, %2
  %9 = load i8, ptr %5, align 1, !tbaa !31
  %10 = zext i8 %9 to i32
  %11 = icmp slt i32 %10, 16
  br i1 %11, label %12, label %53

12:                                               ; preds = %8
  %13 = load ptr, ptr %4, align 8, !tbaa !12
  %14 = load i8, ptr %5, align 1, !tbaa !31
  %15 = zext i8 %14 to i64
  %16 = getelementptr inbounds nuw i8, ptr %13, i64 %15
  %17 = load i8, ptr %16, align 1, !tbaa !31
  %18 = load ptr, ptr %3, align 8, !tbaa !4
  %19 = getelementptr inbounds nuw %struct.PHP_MD2_CTX, ptr %18, i32 0, i32 0
  %20 = load i8, ptr %5, align 1, !tbaa !31
  %21 = zext i8 %20 to i32
  %22 = add nsw i32 16, %21
  %23 = sext i32 %22 to i64
  %24 = getelementptr inbounds [48 x i8], ptr %19, i64 0, i64 %23
  store i8 %17, ptr %24, align 1, !tbaa !31
  %25 = load ptr, ptr %3, align 8, !tbaa !4
  %26 = getelementptr inbounds nuw %struct.PHP_MD2_CTX, ptr %25, i32 0, i32 0
  %27 = load i8, ptr %5, align 1, !tbaa !31
  %28 = zext i8 %27 to i32
  %29 = add nsw i32 16, %28
  %30 = sext i32 %29 to i64
  %31 = getelementptr inbounds [48 x i8], ptr %26, i64 0, i64 %30
  %32 = load i8, ptr %31, align 1, !tbaa !31
  %33 = zext i8 %32 to i32
  %34 = load ptr, ptr %3, align 8, !tbaa !4
  %35 = getelementptr inbounds nuw %struct.PHP_MD2_CTX, ptr %34, i32 0, i32 0
  %36 = load i8, ptr %5, align 1, !tbaa !31
  %37 = zext i8 %36 to i64
  %38 = getelementptr inbounds nuw [48 x i8], ptr %35, i64 0, i64 %37
  %39 = load i8, ptr %38, align 1, !tbaa !31
  %40 = zext i8 %39 to i32
  %41 = xor i32 %33, %40
  %42 = trunc i32 %41 to i8
  %43 = load ptr, ptr %3, align 8, !tbaa !4
  %44 = getelementptr inbounds nuw %struct.PHP_MD2_CTX, ptr %43, i32 0, i32 0
  %45 = load i8, ptr %5, align 1, !tbaa !31
  %46 = zext i8 %45 to i32
  %47 = add nsw i32 32, %46
  %48 = sext i32 %47 to i64
  %49 = getelementptr inbounds [48 x i8], ptr %44, i64 0, i64 %48
  store i8 %42, ptr %49, align 1, !tbaa !31
  br label %50

50:                                               ; preds = %12
  %51 = load i8, ptr %5, align 1, !tbaa !31
  %52 = add i8 %51, 1
  store i8 %52, ptr %5, align 1, !tbaa !31
  br label %8

53:                                               ; preds = %8
  store i8 0, ptr %5, align 1, !tbaa !31
  br label %54

54:                                               ; preds = %93, %53
  %55 = load i8, ptr %5, align 1, !tbaa !31
  %56 = zext i8 %55 to i32
  %57 = icmp slt i32 %56, 18
  br i1 %57, label %58, label %96

58:                                               ; preds = %54
  store i8 0, ptr %6, align 1, !tbaa !31
  br label %59

59:                                               ; preds = %83, %58
  %60 = load i8, ptr %6, align 1, !tbaa !31
  %61 = zext i8 %60 to i32
  %62 = icmp slt i32 %61, 48
  br i1 %62, label %63, label %86

63:                                               ; preds = %59
  %64 = load ptr, ptr %3, align 8, !tbaa !4
  %65 = getelementptr inbounds nuw %struct.PHP_MD2_CTX, ptr %64, i32 0, i32 0
  %66 = load i8, ptr %6, align 1, !tbaa !31
  %67 = zext i8 %66 to i64
  %68 = getelementptr inbounds nuw [48 x i8], ptr %65, i64 0, i64 %67
  %69 = load i8, ptr %68, align 1, !tbaa !31
  %70 = zext i8 %69 to i32
  %71 = load i8, ptr %7, align 1, !tbaa !31
  %72 = zext i8 %71 to i64
  %73 = getelementptr inbounds nuw [256 x i8], ptr @MD2_S, i64 0, i64 %72
  %74 = load i8, ptr %73, align 1, !tbaa !31
  %75 = zext i8 %74 to i32
  %76 = xor i32 %70, %75
  %77 = trunc i32 %76 to i8
  %78 = load ptr, ptr %3, align 8, !tbaa !4
  %79 = getelementptr inbounds nuw %struct.PHP_MD2_CTX, ptr %78, i32 0, i32 0
  %80 = load i8, ptr %6, align 1, !tbaa !31
  %81 = zext i8 %80 to i64
  %82 = getelementptr inbounds nuw [48 x i8], ptr %79, i64 0, i64 %81
  store i8 %77, ptr %82, align 1, !tbaa !31
  store i8 %77, ptr %7, align 1, !tbaa !31
  br label %83

83:                                               ; preds = %63
  %84 = load i8, ptr %6, align 1, !tbaa !31
  %85 = add i8 %84, 1
  store i8 %85, ptr %6, align 1, !tbaa !31
  br label %59

86:                                               ; preds = %59
  %87 = load i8, ptr %5, align 1, !tbaa !31
  %88 = zext i8 %87 to i32
  %89 = load i8, ptr %7, align 1, !tbaa !31
  %90 = zext i8 %89 to i32
  %91 = add nsw i32 %90, %88
  %92 = trunc i32 %91 to i8
  store i8 %92, ptr %7, align 1, !tbaa !31
  br label %93

93:                                               ; preds = %86
  %94 = load i8, ptr %5, align 1, !tbaa !31
  %95 = add i8 %94, 1
  store i8 %95, ptr %5, align 1, !tbaa !31
  br label %54

96:                                               ; preds = %54
  %97 = load ptr, ptr %3, align 8, !tbaa !4
  %98 = getelementptr inbounds nuw %struct.PHP_MD2_CTX, ptr %97, i32 0, i32 1
  %99 = getelementptr inbounds [16 x i8], ptr %98, i64 0, i64 15
  %100 = load i8, ptr %99, align 1, !tbaa !31
  store i8 %100, ptr %7, align 1, !tbaa !31
  store i8 0, ptr %5, align 1, !tbaa !31
  br label %101

101:                                              ; preds = %128, %96
  %102 = load i8, ptr %5, align 1, !tbaa !31
  %103 = zext i8 %102 to i32
  %104 = icmp slt i32 %103, 16
  br i1 %104, label %105, label %131

105:                                              ; preds = %101
  %106 = load ptr, ptr %4, align 8, !tbaa !12
  %107 = load i8, ptr %5, align 1, !tbaa !31
  %108 = zext i8 %107 to i64
  %109 = getelementptr inbounds nuw i8, ptr %106, i64 %108
  %110 = load i8, ptr %109, align 1, !tbaa !31
  %111 = zext i8 %110 to i32
  %112 = load i8, ptr %7, align 1, !tbaa !31
  %113 = zext i8 %112 to i32
  %114 = xor i32 %111, %113
  %115 = sext i32 %114 to i64
  %116 = getelementptr inbounds [256 x i8], ptr @MD2_S, i64 0, i64 %115
  %117 = load i8, ptr %116, align 1, !tbaa !31
  %118 = zext i8 %117 to i32
  %119 = load ptr, ptr %3, align 8, !tbaa !4
  %120 = getelementptr inbounds nuw %struct.PHP_MD2_CTX, ptr %119, i32 0, i32 1
  %121 = load i8, ptr %5, align 1, !tbaa !31
  %122 = zext i8 %121 to i64
  %123 = getelementptr inbounds nuw [16 x i8], ptr %120, i64 0, i64 %122
  %124 = load i8, ptr %123, align 1, !tbaa !31
  %125 = zext i8 %124 to i32
  %126 = xor i32 %125, %118
  %127 = trunc i32 %126 to i8
  store i8 %127, ptr %123, align 1, !tbaa !31
  store i8 %127, ptr %7, align 1, !tbaa !31
  br label %128

128:                                              ; preds = %105
  %129 = load i8, ptr %5, align 1, !tbaa !31
  %130 = add i8 %129, 1
  store i8 %130, ptr %5, align 1, !tbaa !31
  br label %101

131:                                              ; preds = %101
  call void @llvm.lifetime.end.p0(i64 1, ptr %7) #6
  call void @llvm.lifetime.end.p0(i64 1, ptr %6) #6
  call void @llvm.lifetime.end.p0(i64 1, ptr %5) #6
  ret void
}

; Function Attrs: nounwind uwtable
define dso_local void @PHP_MD2Update(ptr noundef %0, ptr noundef %1, i64 noundef %2) #1 {
  %4 = alloca ptr, align 8
  %5 = alloca ptr, align 8
  %6 = alloca i64, align 8
  %7 = alloca ptr, align 8
  %8 = alloca ptr, align 8
  %9 = alloca i32, align 4
  store ptr %0, ptr %4, align 8, !tbaa !4
  store ptr %1, ptr %5, align 8, !tbaa !12
  store i64 %2, ptr %6, align 8, !tbaa !14
  call void @llvm.lifetime.start.p0(i64 8, ptr %7) #6
  %10 = load ptr, ptr %5, align 8, !tbaa !12
  store ptr %10, ptr %7, align 8, !tbaa !12
  call void @llvm.lifetime.start.p0(i64 8, ptr %8) #6
  %11 = load ptr, ptr %5, align 8, !tbaa !12
  %12 = load i64, ptr %6, align 8, !tbaa !14
  %13 = getelementptr inbounds nuw i8, ptr %11, i64 %12
  store ptr %13, ptr %8, align 8, !tbaa !12
  %14 = load ptr, ptr %4, align 8, !tbaa !4
  %15 = getelementptr inbounds nuw %struct.PHP_MD2_CTX, ptr %14, i32 0, i32 3
  %16 = load i8, ptr %15, align 1, !tbaa !16
  %17 = icmp ne i8 %16, 0
  br i1 %17, label %18, label %78

18:                                               ; preds = %3
  %19 = load ptr, ptr %4, align 8, !tbaa !4
  %20 = getelementptr inbounds nuw %struct.PHP_MD2_CTX, ptr %19, i32 0, i32 3
  %21 = load i8, ptr %20, align 1, !tbaa !16
  %22 = zext i8 %21 to i64
  %23 = load i64, ptr %6, align 8, !tbaa !14
  %24 = add i64 %22, %23
  %25 = icmp ult i64 %24, 16
  br i1 %25, label %26, label %47

26:                                               ; preds = %18
  %27 = load ptr, ptr %4, align 8, !tbaa !4
  %28 = getelementptr inbounds nuw %struct.PHP_MD2_CTX, ptr %27, i32 0, i32 2
  %29 = getelementptr inbounds [16 x i8], ptr %28, i64 0, i64 0
  %30 = load ptr, ptr %4, align 8, !tbaa !4
  %31 = getelementptr inbounds nuw %struct.PHP_MD2_CTX, ptr %30, i32 0, i32 3
  %32 = load i8, ptr %31, align 1, !tbaa !16
  %33 = zext i8 %32 to i32
  %34 = sext i32 %33 to i64
  %35 = getelementptr inbounds i8, ptr %29, i64 %34
  %36 = load ptr, ptr %7, align 8, !tbaa !12
  %37 = load i64, ptr %6, align 8, !tbaa !14
  call void @llvm.memcpy.p0.p0.i64(ptr align 1 %35, ptr align 1 %36, i64 %37, i1 false)
  %38 = load i64, ptr %6, align 8, !tbaa !14
  %39 = trunc i64 %38 to i8
  %40 = sext i8 %39 to i32
  %41 = load ptr, ptr %4, align 8, !tbaa !4
  %42 = getelementptr inbounds nuw %struct.PHP_MD2_CTX, ptr %41, i32 0, i32 3
  %43 = load i8, ptr %42, align 1, !tbaa !16
  %44 = zext i8 %43 to i32
  %45 = add nsw i32 %44, %40
  %46 = trunc i32 %45 to i8
  store i8 %46, ptr %42, align 1, !tbaa !16
  store i32 1, ptr %9, align 4
  br label %112

47:                                               ; preds = %18
  %48 = load ptr, ptr %4, align 8, !tbaa !4
  %49 = getelementptr inbounds nuw %struct.PHP_MD2_CTX, ptr %48, i32 0, i32 2
  %50 = getelementptr inbounds [16 x i8], ptr %49, i64 0, i64 0
  %51 = load ptr, ptr %4, align 8, !tbaa !4
  %52 = getelementptr inbounds nuw %struct.PHP_MD2_CTX, ptr %51, i32 0, i32 3
  %53 = load i8, ptr %52, align 1, !tbaa !16
  %54 = zext i8 %53 to i32
  %55 = sext i32 %54 to i64
  %56 = getelementptr inbounds i8, ptr %50, i64 %55
  %57 = load ptr, ptr %7, align 8, !tbaa !12
  %58 = load ptr, ptr %4, align 8, !tbaa !4
  %59 = getelementptr inbounds nuw %struct.PHP_MD2_CTX, ptr %58, i32 0, i32 3
  %60 = load i8, ptr %59, align 1, !tbaa !16
  %61 = zext i8 %60 to i32
  %62 = sub nsw i32 16, %61
  %63 = sext i32 %62 to i64
  call void @llvm.memcpy.p0.p0.i64(ptr align 1 %56, ptr align 1 %57, i64 %63, i1 false)
  %64 = load ptr, ptr %4, align 8, !tbaa !4
  %65 = load ptr, ptr %4, align 8, !tbaa !4
  %66 = getelementptr inbounds nuw %struct.PHP_MD2_CTX, ptr %65, i32 0, i32 2
  %67 = getelementptr inbounds [16 x i8], ptr %66, i64 0, i64 0
  call void @MD2_Transform(ptr noundef %64, ptr noundef %67)
  %68 = load ptr, ptr %4, align 8, !tbaa !4
  %69 = getelementptr inbounds nuw %struct.PHP_MD2_CTX, ptr %68, i32 0, i32 3
  %70 = load i8, ptr %69, align 1, !tbaa !16
  %71 = zext i8 %70 to i32
  %72 = sub nsw i32 16, %71
  %73 = load ptr, ptr %7, align 8, !tbaa !12
  %74 = sext i32 %72 to i64
  %75 = getelementptr inbounds i8, ptr %73, i64 %74
  store ptr %75, ptr %7, align 8, !tbaa !12
  %76 = load ptr, ptr %4, align 8, !tbaa !4
  %77 = getelementptr inbounds nuw %struct.PHP_MD2_CTX, ptr %76, i32 0, i32 3
  store i8 0, ptr %77, align 1, !tbaa !16
  br label %78

78:                                               ; preds = %47, %3
  br label %79

79:                                               ; preds = %84, %78
  %80 = load ptr, ptr %7, align 8, !tbaa !12
  %81 = getelementptr inbounds i8, ptr %80, i64 16
  %82 = load ptr, ptr %8, align 8, !tbaa !12
  %83 = icmp ule ptr %81, %82
  br i1 %83, label %84, label %89

84:                                               ; preds = %79
  %85 = load ptr, ptr %4, align 8, !tbaa !4
  %86 = load ptr, ptr %7, align 8, !tbaa !12
  call void @MD2_Transform(ptr noundef %85, ptr noundef %86)
  %87 = load ptr, ptr %7, align 8, !tbaa !12
  %88 = getelementptr inbounds i8, ptr %87, i64 16
  store ptr %88, ptr %7, align 8, !tbaa !12
  br label %79

89:                                               ; preds = %79
  %90 = load ptr, ptr %7, align 8, !tbaa !12
  %91 = load ptr, ptr %8, align 8, !tbaa !12
  %92 = icmp ult ptr %90, %91
  br i1 %92, label %93, label %111

93:                                               ; preds = %89
  %94 = load ptr, ptr %4, align 8, !tbaa !4
  %95 = getelementptr inbounds nuw %struct.PHP_MD2_CTX, ptr %94, i32 0, i32 2
  %96 = getelementptr inbounds [16 x i8], ptr %95, i64 0, i64 0
  %97 = load ptr, ptr %7, align 8, !tbaa !12
  %98 = load ptr, ptr %8, align 8, !tbaa !12
  %99 = load ptr, ptr %7, align 8, !tbaa !12
  %100 = ptrtoint ptr %98 to i64
  %101 = ptrtoint ptr %99 to i64
  %102 = sub i64 %100, %101
  call void @llvm.memcpy.p0.p0.i64(ptr align 1 %96, ptr align 1 %97, i64 %102, i1 false)
  %103 = load ptr, ptr %8, align 8, !tbaa !12
  %104 = load ptr, ptr %7, align 8, !tbaa !12
  %105 = ptrtoint ptr %103 to i64
  %106 = ptrtoint ptr %104 to i64
  %107 = sub i64 %105, %106
  %108 = trunc i64 %107 to i8
  %109 = load ptr, ptr %4, align 8, !tbaa !4
  %110 = getelementptr inbounds nuw %struct.PHP_MD2_CTX, ptr %109, i32 0, i32 3
  store i8 %108, ptr %110, align 1, !tbaa !16
  br label %111

111:                                              ; preds = %93, %89
  store i32 0, ptr %9, align 4
  br label %112

112:                                              ; preds = %111, %26
  call void @llvm.lifetime.end.p0(i64 8, ptr %8) #6
  call void @llvm.lifetime.end.p0(i64 8, ptr %7) #6
  %113 = load i32, ptr %9, align 4
  switch i32 %113, label %115 [
    i32 0, label %114
    i32 1, label %114
  ]

114:                                              ; preds = %112, %112
  ret void

115:                                              ; preds = %112
  unreachable
}