; Function Attrs: nofree norecurse nosync nounwind memory(argmem: readwrite) uwtable
define dso_local void @PHP_MD2Update(ptr noundef captures(none) %0, ptr noundef %1, i64 noundef %2) #2 {
  %4 = getelementptr inbounds nuw i8, ptr %1, i64 %2
  %5 = getelementptr inbounds nuw i8, ptr %0, i64 80
  %6 = load i8, ptr %5, align 1, !tbaa !9
  %.not = icmp eq i8 %6, 0
  br i1 %.not, label %59, label %7

7:                                                ; preds = %3
  %8 = zext i8 %6 to i64
  %9 = add i64 %2, %8
  %10 = icmp ult i64 %9, 16
  %11 = getelementptr inbounds nuw i8, ptr %0, i64 64
  %12 = getelementptr inbounds nuw i8, ptr %11, i64 %8
  br i1 %10, label %13, label %17

13:                                               ; preds = %7
  tail call void @llvm.memcpy.p0.p0.i64(ptr nonnull align 1 %12, ptr align 1 %1, i64 %2, i1 false)
  %14 = trunc i64 %2 to i8
  %15 = load i8, ptr %5, align 1, !tbaa !9
  %16 = add i8 %15, %14
  br label %.sink.split

17:                                               ; preds = %7
  %18 = sub nsw i64 16, %8
  tail call void @llvm.memcpy.p0.p0.i64(ptr nonnull align 1 %12, ptr align 1 %1, i64 %18, i1 false)
  br label %19

19:                                               ; preds = %19, %17
  %indvars.iv.i = phi i64 [ 0, %17 ], [ %indvars.iv.next.i, %19 ]
  %20 = getelementptr inbounds nuw i8, ptr %11, i64 %indvars.iv.i
  %21 = load i8, ptr %20, align 1, !tbaa !8
  %22 = and i64 %indvars.iv.i, 4294967279
  %23 = or disjoint i64 %22, 16
  %24 = getelementptr inbounds nuw [48 x i8], ptr %0, i64 0, i64 %23
  store i8 %21, ptr %24, align 1, !tbaa !8
  %25 = getelementptr inbounds nuw [48 x i8], ptr %0, i64 0, i64 %indvars.iv.i
  %26 = load i8, ptr %25, align 1, !tbaa !8
  %27 = xor i8 %26, %21
  %28 = and i64 %indvars.iv.i, 4294967263
  %29 = or disjoint i64 %28, 32
  %30 = getelementptr inbounds nuw [48 x i8], ptr %0, i64 0, i64 %29
  store i8 %27, ptr %30, align 1, !tbaa !8
  %indvars.iv.next.i = add nuw nsw i64 %indvars.iv.i, 1
  %exitcond.not.i = icmp eq i64 %indvars.iv.next.i, 16
  br i1 %exitcond.not.i, label %.preheader.i, label %19

.preheader.i:                                     ; preds = %19, %38
  %.041.i = phi i8 [ %39, %38 ], [ 0, %19 ]
  %.13240.i = phi i8 [ %40, %38 ], [ 0, %19 ]
  br label %31

31:                                               ; preds = %31, %.preheader.i
  %indvars.iv45.i = phi i64 [ 0, %.preheader.i ], [ %indvars.iv.next46.i, %31 ]
  %.139.i = phi i8 [ %.041.i, %.preheader.i ], [ %37, %31 ]
  %32 = getelementptr inbounds nuw [48 x i8], ptr %0, i64 0, i64 %indvars.iv45.i
  %33 = load i8, ptr %32, align 1, !tbaa !8
  %34 = zext i8 %.139.i to i64
  %35 = getelementptr inbounds nuw [256 x i8], ptr @MD2_S, i64 0, i64 %34
  %36 = load i8, ptr %35, align 1, !tbaa !8
  %37 = xor i8 %36, %33
  store i8 %37, ptr %32, align 1, !tbaa !8
  %indvars.iv.next46.i = add nuw nsw i64 %indvars.iv45.i, 1
  %exitcond48.not.i = icmp eq i64 %indvars.iv.next46.i, 48
  br i1 %exitcond48.not.i, label %38, label %31

38:                                               ; preds = %31
  %39 = add i8 %37, %.13240.i
  %40 = add nuw nsw i8 %.13240.i, 1
  %exitcond49.not.i = icmp eq i8 %40, 18
  br i1 %exitcond49.not.i, label %41, label %.preheader.i

41:                                               ; preds = %38
  %42 = getelementptr inbounds nuw i8, ptr %0, i64 48
  %43 = getelementptr inbounds nuw i8, ptr %0, i64 63
  %44 = load i8, ptr %43, align 1, !tbaa !8
  br label %45

45:                                               ; preds = %45, %41
  %indvars.iv50.i = phi i64 [ 0, %41 ], [ %indvars.iv.next51.i, %45 ]
  %.243.i = phi i8 [ %44, %41 ], [ %54, %45 ]
  %46 = getelementptr inbounds nuw i8, ptr %11, i64 %indvars.iv50.i
  %47 = load i8, ptr %46, align 1, !tbaa !8
  %48 = xor i8 %47, %.243.i
  %49 = zext i8 %48 to i64
  %50 = getelementptr inbounds nuw [256 x i8], ptr @MD2_S, i64 0, i64 %49
  %51 = load i8, ptr %50, align 1, !tbaa !8
  %52 = getelementptr inbounds nuw [16 x i8], ptr %42, i64 0, i64 %indvars.iv50.i
  %53 = load i8, ptr %52, align 1, !tbaa !8
  %54 = xor i8 %53, %51
  store i8 %54, ptr %52, align 1, !tbaa !8
  %indvars.iv.next51.i = add nuw nsw i64 %indvars.iv50.i, 1
  %exitcond53.not.i = icmp eq i64 %indvars.iv.next51.i, 16
  br i1 %exitcond53.not.i, label %MD2_Transform.exit, label %45

MD2_Transform.exit:                               ; preds = %45
  %55 = load i8, ptr %5, align 1, !tbaa !9
  %56 = zext i8 %55 to i64
  %57 = sub nsw i64 16, %56
  %58 = getelementptr inbounds i8, ptr %1, i64 %57
  store i8 0, ptr %5, align 1, !tbaa !9
  br label %59

59:                                               ; preds = %MD2_Transform.exit, %3
  %.0 = phi ptr [ %58, %MD2_Transform.exit ], [ %1, %3 ]
  %60 = getelementptr inbounds nuw i8, ptr %.0, i64 16
  %.not3755 = icmp ugt ptr %60, %4
  br i1 %.not3755, label %MD2_Transform.exit53._crit_edge, label %.preheader.lr.ph

.preheader.lr.ph:                                 ; preds = %59
  %61 = getelementptr inbounds nuw i8, ptr %0, i64 48
  %62 = getelementptr inbounds nuw i8, ptr %0, i64 63
  br label %.preheader

MD2_Transform.exit53.loopexit:                    ; preds = %89
  %63 = getelementptr inbounds nuw i8, ptr %64, i64 16
  %.not37 = icmp ugt ptr %63, %4
  br i1 %.not37, label %MD2_Transform.exit53._crit_edge, label %.preheader

.preheader:                                       ; preds = %.preheader.lr.ph, %MD2_Transform.exit53.loopexit
  %64 = phi ptr [ %60, %.preheader.lr.ph ], [ %63, %MD2_Transform.exit53.loopexit ]
  %.156 = phi ptr [ %.0, %.preheader.lr.ph ], [ %64, %MD2_Transform.exit53.loopexit ]
  br label %65

65:                                               ; preds = %.preheader, %65
  %indvars.iv.i38 = phi i64 [ %indvars.iv.next.i39, %65 ], [ 0, %.preheader ]
  %66 = getelementptr inbounds nuw i8, ptr %.156, i64 %indvars.iv.i38
  %67 = load i8, ptr %66, align 1, !tbaa !8
  %68 = and i64 %indvars.iv.i38, 4294967279
  %69 = or disjoint i64 %68, 16
  %70 = getelementptr inbounds nuw [48 x i8], ptr %0, i64 0, i64 %69
  store i8 %67, ptr %70, align 1, !tbaa !8
  %71 = getelementptr inbounds nuw [48 x i8], ptr %0, i64 0, i64 %indvars.iv.i38
  %72 = load i8, ptr %71, align 1, !tbaa !8
  %73 = xor i8 %72, %67
  %74 = and i64 %indvars.iv.i38, 4294967263
  %75 = or disjoint i64 %74, 32
  %76 = getelementptr inbounds nuw [48 x i8], ptr %0, i64 0, i64 %75
  store i8 %73, ptr %76, align 1, !tbaa !8
  %indvars.iv.next.i39 = add nuw nsw i64 %indvars.iv.i38, 1
  %exitcond.not.i40 = icmp eq i64 %indvars.iv.next.i39, 16
  br i1 %exitcond.not.i40, label %.preheader.i41, label %65

.preheader.i41:                                   ; preds = %65, %84
  %.041.i42 = phi i8 [ %85, %84 ], [ 0, %65 ]
  %.13240.i43 = phi i8 [ %86, %84 ], [ 0, %65 ]
  br label %77

77:                                               ; preds = %77, %.preheader.i41
  %indvars.iv45.i44 = phi i64 [ 0, %.preheader.i41 ], [ %indvars.iv.next46.i46, %77 ]
  %.139.i45 = phi i8 [ %.041.i42, %.preheader.i41 ], [ %83, %77 ]
  %78 = getelementptr inbounds nuw [48 x i8], ptr %0, i64 0, i64 %indvars.iv45.i44
  %79 = load i8, ptr %78, align 1, !tbaa !8
  %80 = zext i8 %.139.i45 to i64
  %81 = getelementptr inbounds nuw [256 x i8], ptr @MD2_S, i64 0, i64 %80
  %82 = load i8, ptr %81, align 1, !tbaa !8
  %83 = xor i8 %82, %79
  store i8 %83, ptr %78, align 1, !tbaa !8
  %indvars.iv.next46.i46 = add nuw nsw i64 %indvars.iv45.i44, 1
  %exitcond48.not.i47 = icmp eq i64 %indvars.iv.next46.i46, 48
  br i1 %exitcond48.not.i47, label %84, label %77

84:                                               ; preds = %77
  %85 = add i8 %83, %.13240.i43
  %86 = add nuw nsw i8 %.13240.i43, 1
  %exitcond49.not.i48 = icmp eq i8 %86, 18
  br i1 %exitcond49.not.i48, label %87, label %.preheader.i41

87:                                               ; preds = %84
  %88 = load i8, ptr %62, align 1, !tbaa !8
  br label %89

89:                                               ; preds = %89, %87
  %indvars.iv50.i49 = phi i64 [ 0, %87 ], [ %indvars.iv.next51.i51, %89 ]
  %.243.i50 = phi i8 [ %88, %87 ], [ %98, %89 ]
  %90 = getelementptr inbounds nuw i8, ptr %.156, i64 %indvars.iv50.i49
  %91 = load i8, ptr %90, align 1, !tbaa !8
  %92 = xor i8 %91, %.243.i50
  %93 = zext i8 %92 to i64
  %94 = getelementptr inbounds nuw [256 x i8], ptr @MD2_S, i64 0, i64 %93
  %95 = load i8, ptr %94, align 1, !tbaa !8
  %96 = getelementptr inbounds nuw [16 x i8], ptr %61, i64 0, i64 %indvars.iv50.i49
  %97 = load i8, ptr %96, align 1, !tbaa !8
  %98 = xor i8 %97, %95
  store i8 %98, ptr %96, align 1, !tbaa !8
  %indvars.iv.next51.i51 = add nuw nsw i64 %indvars.iv50.i49, 1
  %exitcond53.not.i52 = icmp eq i64 %indvars.iv.next51.i51, 16
  br i1 %exitcond53.not.i52, label %MD2_Transform.exit53.loopexit, label %89

MD2_Transform.exit53._crit_edge:                  ; preds = %MD2_Transform.exit53.loopexit, %59
  %.1.lcssa = phi ptr [ %.0, %59 ], [ %64, %MD2_Transform.exit53.loopexit ]
  %99 = icmp ult ptr %.1.lcssa, %4
  br i1 %99, label %100, label %106

100:                                              ; preds = %MD2_Transform.exit53._crit_edge
  %101 = getelementptr inbounds nuw i8, ptr %0, i64 64
  %102 = ptrtoint ptr %4 to i64
  %103 = ptrtoint ptr %.1.lcssa to i64
  %104 = sub i64 %102, %103
  tail call void @llvm.memcpy.p0.p0.i64(ptr nonnull align 1 %101, ptr align 1 %.1.lcssa, i64 %104, i1 false)
  %105 = trunc i64 %104 to i8
  br label %.sink.split

.sink.split:                                      ; preds = %13, %100
  %.sink = phi i8 [ %105, %100 ], [ %16, %13 ]
  store i8 %.sink, ptr %5, align 1, !tbaa !9
  br label %106

106:                                              ; preds = %.sink.split, %MD2_Transform.exit53._crit_edge
  ret void
}